target datalayout = "e-m:e-p270:32:32-p271:32:32-p272:64:64-i64:64-i128:128-f80:128-n8:16:32:64-S128"
target triple = "x86_64-pc-linux-gnu"

%"class.std::ios_base" = type { ptr, i64, i64, i32, i32, i32, ptr, %"struct.std::ios_base::_Words", [8 x %"struct.std::ios_base::_Words"], i32, ptr, %"class.std::locale" }
%"struct.std::ios_base::_Words" = type { ptr, i64 }
%"class.std::locale" = type { ptr }

@_ZN10Bookkeeper17read_volatile_cntE = dso_local global i32 0, align 4
@_ZN10Bookkeeper18write_volatile_cntE = dso_local global i32 0, align 4
@_ZN10Bookkeeper21read_non_volatile_cntE = dso_local global i32 0, align 4
@_ZN10Bookkeeper22write_non_volatile_cntE = dso_local global i32 0, align 4
@_ZN10Bookkeeper26read_volatile_thru_ptr_cntE = dso_local global i32 0, align 4
@_ZN10Bookkeeper27write_volatile_thru_ptr_cntE = dso_local global i32 0, align 4
@_ZN10Bookkeeper14volatile_availE = dso_local global i32 0, align 4
@.str.36 = private unnamed_addr constant [31 x i8] c"times a non-volatile is read: \00", align 1
@.str.37 = private unnamed_addr constant [32 x i8] c"times a non-volatile is write: \00", align 1
@.str.38 = private unnamed_addr constant [27 x i8] c"times a volatile is read: \00", align 1
@.str.39 = private unnamed_addr constant [31 x i8] c"   times read thru a pointer: \00", align 1
@.str.40 = private unnamed_addr constant [28 x i8] c"times a volatile is write: \00", align 1
@.str.41 = private unnamed_addr constant [34 x i8] c"   times written thru a pointer: \00", align 1
@.str.42 = private unnamed_addr constant [43 x i8] c"times a volatile is available for access: \00", align 1
@.str.43 = private unnamed_addr constant [36 x i8] c"percentage of non-volatile access: \00", align 1

; Function Attrs: mustprogress nounwind uwtable
define linkonce_odr dso_local noundef i64 @_ZNSt8ios_base9precisionEl(ptr noundef nonnull align 8 dereferenceable(216) %0, i64 noundef %1) #4 comdat align 2 {
  %3 = alloca ptr, align 8
  %4 = alloca i64, align 8
  %5 = alloca i64, align 8
  store ptr %0, ptr %3, align 8, !tbaa !149
  store i64 %1, ptr %4, align 8, !tbaa !26
  %6 = load ptr, ptr %3, align 8
  call void @llvm.lifetime.start.p0(i64 8, ptr %5) #3
  %7 = getelementptr inbounds nuw %"class.std::ios_base", ptr %6, i32 0, i32 1
  %8 = load i64, ptr %7, align 8, !tbaa !151
  store i64 %8, ptr %5, align 8, !tbaa !26
  %9 = load i64, ptr %4, align 8, !tbaa !26
  %10 = getelementptr inbounds nuw %"class.std::ios_base", ptr %6, i32 0, i32 1
  store i64 %9, ptr %10, align 8, !tbaa !151
  %11 = load i64, ptr %5, align 8, !tbaa !26
  call void @llvm.lifetime.end.p0(i64 8, ptr %5) #3
  ret i64 %11
}

; Function Attrs: mustprogress uwtable
define dso_local void @_ZN10Bookkeeper33output_volatile_access_statisticsERSo(ptr noundef nonnull align 8 dereferenceable(8) %0) #5 align 2 {
  %2 = alloca ptr, align 8
  %3 = alloca double, align 8
  store ptr %0, ptr %2, align 8, !tbaa !80
  %4 = load ptr, ptr %2, align 8, !tbaa !80
  %5 = load i32, ptr @_ZN10Bookkeeper21read_non_volatile_cntE, align 4, !tbaa !15
  call void @_ZL15formated_outputRSoPKci(ptr noundef nonnull align 8 dereferenceable(8) %4, ptr noundef @.str.36, i32 noundef %5)
  %6 = load ptr, ptr %2, align 8, !tbaa !80
  %7 = load i32, ptr @_ZN10Bookkeeper22write_non_volatile_cntE, align 4, !tbaa !15
  call void @_ZL15formated_outputRSoPKci(ptr noundef nonnull align 8 dereferenceable(8) %6, ptr noundef @.str.37, i32 noundef %7)
  %8 = load ptr, ptr %2, align 8, !tbaa !80
  %9 = load i32, ptr @_ZN10Bookkeeper17read_volatile_cntE, align 4, !tbaa !15
  call void @_ZL15formated_outputRSoPKci(ptr noundef nonnull align 8 dereferenceable(8) %8, ptr noundef @.str.38, i32 noundef %9)
  %10 = load ptr, ptr %2, align 8, !tbaa !80
  %11 = load i32, ptr @_ZN10Bookkeeper26read_volatile_thru_ptr_cntE, align 4, !tbaa !15
  call void @_ZL15formated_outputRSoPKci(ptr noundef nonnull align 8 dereferenceable(8) %10, ptr noundef @.str.39, i32 noundef %11)
  %12 = load ptr, ptr %2, align 8, !tbaa !80
  %13 = load i32, ptr @_ZN10Bookkeeper18write_volatile_cntE, align 4, !tbaa !15
  call void @_ZL15formated_outputRSoPKci(ptr noundef nonnull align 8 dereferenceable(8) %12, ptr noundef @.str.40, i32 noundef %13)
  %14 = load ptr, ptr %2, align 8, !tbaa !80
  %15 = load i32, ptr @_ZN10Bookkeeper27write_volatile_thru_ptr_cntE, align 4, !tbaa !15
  call void @_ZL15formated_outputRSoPKci(ptr noundef nonnull align 8 dereferenceable(8) %14, ptr noundef @.str.41, i32 noundef %15)
  call void @llvm.lifetime.start.p0(i64 8, ptr %3) #3
  %16 = load i32, ptr @_ZN10Bookkeeper21read_non_volatile_cntE, align 4, !tbaa !15
  %17 = load i32, ptr @_ZN10Bookkeeper22write_non_volatile_cntE, align 4, !tbaa !15
  %18 = add nsw i32 %16, %17
  %19 = sitofp i32 %18 to double
  %20 = fmul double %19, 1.000000e+02
  %21 = load i32, ptr @_ZN10Bookkeeper21read_non_volatile_cntE, align 4, !tbaa !15
  %22 = load i32, ptr @_ZN10Bookkeeper22write_non_volatile_cntE, align 4, !tbaa !15
  %23 = add nsw i32 %21, %22
  %24 = load i32, ptr @_ZN10Bookkeeper17read_volatile_cntE, align 4, !tbaa !15
  %25 = add nsw i32 %23, %24
  %26 = load i32, ptr @_ZN10Bookkeeper18write_volatile_cntE, align 4, !tbaa !15
  %27 = add nsw i32 %25, %26
  %28 = sitofp i32 %27 to double
  %29 = fdiv double %20, %28
  store double %29, ptr %3, align 8, !tbaa !131
  %30 = load ptr, ptr %2, align 8, !tbaa !80
  %31 = load i32, ptr @_ZN10Bookkeeper14volatile_availE, align 4, !tbaa !15
  %32 = sitofp i32 %31 to double
  call void @_ZL16formated_outputfRSoPKcd(ptr noundef nonnull align 8 dereferenceable(8) %30, ptr noundef @.str.42, double noundef %32)
  %33 = load ptr, ptr %2, align 8, !tbaa !80
  %34 = load ptr, ptr %33, align 8, !tbaa !24
  %35 = getelementptr i8, ptr %34, i64 -24
  %36 = load i64, ptr %35, align 8
  %37 = getelementptr inbounds i8, ptr %33, i64 %36
  %38 = call noundef i64 @_ZNSt8ios_base9precisionEl(ptr noundef nonnull align 8 dereferenceable(216) %37, i64 noundef 3)
  %39 = load ptr, ptr %2, align 8, !tbaa !80
  %40 = load double, ptr %3, align 8, !tbaa !131
  call void @_ZL16formated_outputfRSoPKcd(ptr noundef nonnull align 8 dereferenceable(8) %39, ptr noundef @.str.43, double noundef %40)
  call void @llvm.lifetime.end.p0(i64 8, ptr %3) #3
  ret void
}