; Function Attrs: mustprogress uwtable
define dso_local void @_ZN10Bookkeeper33output_volatile_access_statisticsERSo(ptr noundef nonnull align 8 dereferenceable(8) %0) local_unnamed_addr #6 align 2 {
  %2 = load i32, ptr @_ZN10Bookkeeper21read_non_volatile_cntE, align 4, !tbaa !12
  tail call fastcc void @_ZL15formated_outputRSoPKci(ptr noundef nonnull align 8 dereferenceable(8) %0, ptr noundef nonnull @.str.36, i32 noundef %2)
  %3 = load i32, ptr @_ZN10Bookkeeper22write_non_volatile_cntE, align 4, !tbaa !12
  tail call fastcc void @_ZL15formated_outputRSoPKci(ptr noundef nonnull align 8 dereferenceable(8) %0, ptr noundef nonnull @.str.37, i32 noundef %3)
  %4 = load i32, ptr @_ZN10Bookkeeper17read_volatile_cntE, align 4, !tbaa !12
  tail call fastcc void @_ZL15formated_outputRSoPKci(ptr noundef nonnull align 8 dereferenceable(8) %0, ptr noundef nonnull @.str.38, i32 noundef %4)
  %5 = load i32, ptr @_ZN10Bookkeeper26read_volatile_thru_ptr_cntE, align 4, !tbaa !12
  tail call fastcc void @_ZL15formated_outputRSoPKci(ptr noundef nonnull align 8 dereferenceable(8) %0, ptr noundef nonnull @.str.39, i32 noundef %5)
  %6 = load i32, ptr @_ZN10Bookkeeper18write_volatile_cntE, align 4, !tbaa !12
  tail call fastcc void @_ZL15formated_outputRSoPKci(ptr noundef nonnull align 8 dereferenceable(8) %0, ptr noundef nonnull @.str.40, i32 noundef %6)
  %7 = load i32, ptr @_ZN10Bookkeeper27write_volatile_thru_ptr_cntE, align 4, !tbaa !12
  tail call fastcc void @_ZL15formated_outputRSoPKci(ptr noundef nonnull align 8 dereferenceable(8) %0, ptr noundef nonnull @.str.41, i32 noundef %7)
  %8 = load i32, ptr @_ZN10Bookkeeper21read_non_volatile_cntE, align 4, !tbaa !12
  %9 = load i32, ptr @_ZN10Bookkeeper22write_non_volatile_cntE, align 4, !tbaa !12
  %10 = add nsw i32 %9, %8
  %11 = sitofp i32 %10 to double
  %12 = fmul double %11, 1.000000e+02
  %13 = load i32, ptr @_ZN10Bookkeeper17read_volatile_cntE, align 4, !tbaa !12
  %14 = add nsw i32 %10, %13
  %15 = load i32, ptr @_ZN10Bookkeeper18write_volatile_cntE, align 4, !tbaa !12
  %16 = add nsw i32 %14, %15
  %17 = sitofp i32 %16 to double
  %18 = fdiv double %12, %17
  %19 = load i32, ptr @_ZN10Bookkeeper14volatile_availE, align 4, !tbaa !12
  %20 = sitofp i32 %19 to double
  tail call fastcc void @_ZL16formated_outputfRSoPKcd(ptr noundef nonnull align 8 dereferenceable(8) %0, ptr noundef nonnull @.str.42, double noundef %20)
  %21 = load ptr, ptr %0, align 8, !tbaa !19
  %22 = getelementptr i8, ptr %21, i64 -24
  %23 = load i64, ptr %22, align 8
  %24 = getelementptr inbounds i8, ptr %0, i64 %23
  %25 = getelementptr inbounds nuw i8, ptr %24, i64 8
  store i64 3, ptr %25, align 8, !tbaa !141
  tail call fastcc void @_ZL16formated_outputfRSoPKcd(ptr noundef nonnull align 8 dereferenceable(8) %0, ptr noundef nonnull @.str.43, double noundef %18)
  ret void
}